; Function Attrs: mustprogress uwtable
define void @_ZNK6casadi6MXNode9get_unaryEx(ptr dead_on_unwind noalias writable sret(%"class.casadi::MX") align 8 %0, ptr noundef nonnull align 8 dereferenceable(64) %1, i64 noundef %2) unnamed_addr #3 align 2 personality ptr @__gxx_personality_v0 {
  %4 = alloca %"class.casadi::MX", align 8
  %5 = tail call noundef zeroext i1 @_ZN6casadi16operation_getterINS_10F0XCheckerEbEET0_x(i64 noundef %2)
  br i1 %5, label %6, label %13

6:                                                ; preds = %3
  %7 = load ptr, ptr %1, align 8
  %8 = getelementptr inbounds i8, ptr %7, i64 40
  %9 = load ptr, ptr %8, align 8
  %10 = tail call noundef zeroext i1 %9(ptr noundef nonnull align 8 dereferenceable(64) %1)
  br i1 %10, label %11, label %13

11:                                               ; preds = %6
  %12 = getelementptr inbounds i8, ptr %1, i64 56
  tail call void @_ZN6casadi2MXC1ERKNS_8SparsityEdb(ptr noundef nonnull align 8 dereferenceable(8) %0, ptr noundef nonnull align 8 dereferenceable(8) %12, double noundef 0.000000e+00, i1 noundef zeroext false)
  br label %24

13:                                               ; preds = %6, %3
  %14 = tail call noalias noundef nonnull dereferenceable(72) ptr @_Znwm(i64 noundef 72) #35
  invoke void @_ZNK6casadi20SharedObjectInternal16shared_from_thisINS_2MXEEEKT_v(ptr dead_on_unwind nonnull writable sret(%"class.casadi::MX") align 8 %4, ptr noundef nonnull align 8 dereferenceable(24) %1)
          to label %15 unwind label %.thread

15:                                               ; preds = %13
  %16 = trunc i64 %2 to i32
  invoke void @_ZN6casadi7UnaryMXC1ENS_9OperationENS_2MXE(ptr noundef nonnull align 8 dereferenceable(68) %14, i32 noundef %16, ptr noundef nonnull %4)
          to label %18 unwind label %.thread12

.thread12:                                        ; preds = %15
  %17 = landingpad { ptr, i32 }
          cleanup
  call void @_ZN6casadi2MXD1Ev(ptr noundef nonnull align 8 dereferenceable(8) %4) #31
  br label %23

18:                                               ; preds = %15
  invoke void @_ZN6casadi2MX6createEPNS_6MXNodeE(ptr dead_on_unwind writable sret(%"class.casadi::MX") align 8 %0, ptr noundef nonnull %14)
          to label %19 unwind label %21

19:                                               ; preds = %18
  call void @_ZN6casadi2MXD1Ev(ptr noundef nonnull align 8 dereferenceable(8) %4) #31
  br label %24

.thread:                                          ; preds = %13
  %20 = landingpad { ptr, i32 }
          cleanup
  br label %23

21:                                               ; preds = %18
  %22 = landingpad { ptr, i32 }
          cleanup
  call void @_ZN6casadi2MXD1Ev(ptr noundef nonnull align 8 dereferenceable(8) %4) #31
  br label %25

23:                                               ; preds = %.thread12, %.thread
  %.pn11 = phi { ptr, i32 } [ %20, %.thread ], [ %17, %.thread12 ]
  call void @_ZdlPv(ptr noundef nonnull %14) #32
  br label %25

24:                                               ; preds = %19, %11
  ret void

25:                                               ; preds = %21, %23
  %.pn10 = phi { ptr, i32 } [ %22, %21 ], [ %.pn11, %23 ]
  resume { ptr, i32 } %.pn10
}